; Function Attrs: mustprogress uwtable
define void @_ZN7rocksdb10FileSystem7DefaultEv(ptr noalias nocapture writeonly sret(%"class.std::shared_ptr") align 8 %agg.result) local_unnamed_addr #5 align 2 personality ptr @__gxx_personality_v0 {
entry:
  %ref.tmp = alloca %"class.std::shared_ptr.13", align 16
  %0 = load atomic i8, ptr @_ZGVZN7rocksdb10FileSystem7DefaultEvE8instance acquire, align 8
  %guard.uninitialized = icmp eq i8 %0, 0
  br i1 %guard.uninitialized, label %init.check, label %init.end, !prof !4

init.check:                                       ; preds = %entry
  %1 = tail call i32 @__cxa_guard_acquire(ptr nonnull @_ZGVZN7rocksdb10FileSystem7DefaultEvE8instance) #29
  %tobool.not = icmp eq i32 %1, 0
  br i1 %tobool.not, label %init.end, label %init

init:                                             ; preds = %init.check
  %call = invoke noalias noundef nonnull dereferenceable(16) ptr @_Znwm(i64 noundef 16) #31
          to label %invoke.cont unwind label %lpad

invoke.cont:                                      ; preds = %init
  invoke fastcc void @_ZSt11make_sharedIN7rocksdb12_GLOBAL__N_115PosixFileSystemEJEESt10shared_ptrINSt9enable_ifIXntsr8is_arrayIT_EE5valueES5_E4typeEEDpOT0_(ptr noalias nonnull align 8 %ref.tmp)
          to label %invoke.cont2 unwind label %lpad1

invoke.cont2:                                     ; preds = %invoke.cont
  %_M_refcount4.i.i = getelementptr inbounds i8, ptr %ref.tmp, i64 8
  %2 = load <2 x ptr>, ptr %ref.tmp, align 16
  store ptr null, ptr %_M_refcount4.i.i, align 8
  store <2 x ptr> %2, ptr %call, align 8
  store ptr null, ptr %ref.tmp, align 16
  tail call fastcc void @_ZNSt10shared_ptrIN7rocksdb12_GLOBAL__N_115PosixFileSystemEED2Ev(ptr null) #29
  store ptr %call, ptr @_ZZN7rocksdb10FileSystem7DefaultEvE8instance, align 8
  tail call void @__cxa_guard_release(ptr nonnull @_ZGVZN7rocksdb10FileSystem7DefaultEvE8instance) #29
  br label %init.end

init.end:                                         ; preds = %invoke.cont2, %init.check, %entry
  %3 = load ptr, ptr @_ZZN7rocksdb10FileSystem7DefaultEvE8instance, align 8
  %4 = load <2 x ptr>, ptr %3, align 8
  store <2 x ptr> %4, ptr %agg.result, align 8
  %5 = extractelement <2 x ptr> %4, i64 1
  %cmp.not.i.i.i = icmp eq ptr %5, null
  br i1 %cmp.not.i.i.i, label %_ZNSt10shared_ptrIN7rocksdb10FileSystemEEC2ERKS2_.exit, label %if.then.i.i.i

if.then.i.i.i:                                    ; preds = %init.end
  %_M_use_count.i.i.i.i = getelementptr inbounds i8, ptr %5, i64 8
  %6 = load i8, ptr @__libc_single_threaded, align 1
  %tobool.i.i.not.i.i.i.i = icmp eq i8 %6, 0
  br i1 %tobool.i.i.not.i.i.i.i, label %if.else.i.i.i.i.i, label %if.then.i.i.i.i.i

if.then.i.i.i.i.i:                                ; preds = %if.then.i.i.i
  %7 = load i32, ptr %_M_use_count.i.i.i.i, align 4
  %add.i.i.i.i.i = add nsw i32 %7, 1
  store i32 %add.i.i.i.i.i, ptr %_M_use_count.i.i.i.i, align 4
  br label %_ZNSt10shared_ptrIN7rocksdb10FileSystemEEC2ERKS2_.exit

if.else.i.i.i.i.i:                                ; preds = %if.then.i.i.i
  %8 = atomicrmw volatile add ptr %_M_use_count.i.i.i.i, i32 1 acq_rel, align 4
  br label %_ZNSt10shared_ptrIN7rocksdb10FileSystemEEC2ERKS2_.exit

_ZNSt10shared_ptrIN7rocksdb10FileSystemEEC2ERKS2_.exit: ; preds = %init.end, %if.then.i.i.i.i.i, %if.else.i.i.i.i.i
  ret void

lpad:                                             ; preds = %init
  %9 = landingpad { ptr, i32 }
          cleanup
  br label %ehcleanup

lpad1:                                            ; preds = %invoke.cont
  %10 = landingpad { ptr, i32 }
          cleanup
  tail call void @_ZdlPv(ptr noundef nonnull %call) #32
  br label %ehcleanup

ehcleanup:                                        ; preds = %lpad1, %lpad
  %.pn = phi { ptr, i32 } [ %10, %lpad1 ], [ %9, %lpad ]
  tail call void @__cxa_guard_abort(ptr nonnull @_ZGVZN7rocksdb10FileSystem7DefaultEvE8instance) #29
  resume { ptr, i32 } %.pn
}